Certificate:
    Data:
        Version: 3 (0x2)
        Serial Number: 2 (0x2)
    Signature Algorithm: sha256WithRSAEncryption
        Issuer: CN=com.qs.yeild, ST=SC, C=CN/emailAddress=yeild@qs.com, O=scqs
        Validity
            Not Before: Feb 28 02:49:27 2019 GMT
            Not After : Feb 25 02:49:27 2029 GMT
        Subject: CN=com.qs.yeild, ST=SC, C=CN/emailAddress=yeild@qs.com, O=scqs
        Subject Public Key Info:
            Public Key Algorithm: rsaEncryption
                Public-Key: (4096 bit)
                Modulus:
                    00:bb:ce:e7:67:48:e4:4b:84:1e:ba:44:18:bd:6a:
                    0f:73:63:ee:1c:f6:83:c1:ec:66:8a:16:2a:2f:e4:
                    5d:08:c1:95:1e:33:5b:a7:6a:24:50:26:f0:33:4a:
                    3b:2c:62:43:f9:34:31:41:de:b6:6e:e1:03:55:6e:
                    57:21:60:ac:8d:3e:49:85:a2:ed:57:9e:9f:8f:b7:
                    be:1f:1d:62:4f:ed:26:15:88:7d:cc:7f:b5:fb:ad:
                    ba:79:8c:22:4e:11:37:b4:33:1b:c8:b4:9b:2b:46:
                    a7:bc:94:93:e9:ad:cb:4c:d1:5f:cf:46:9a:b9:22:
                    e3:3b:b7:76:54:e9:45:18:07:f5:28:6e:c0:7d:fc:
                    ef:f9:48:6d:6c:ea:32:44:a1:fa:8c:c6:ea:1d:a3:
                    4d:0c:92:f9:7f:31:85:f9:8b:0a:d1:52:a5:ed:95:
                    66:e6:44:8d:7e:50:f2:9e:db:b1:1a:1e:41:7b:cd:
                    7c:d0:56:d7:bd:57:a8:6d:c1:87:9d:e3:1f:6f:f1:
                    f6:d6:b8:5e:d8:53:e3:09:80:ba:5c:03:ef:0f:71:
                    c4:bd:e6:44:e7:38:f5:1a:67:2d:5d:88:c5:95:9a:
                    dd:e8:81:3d:1c:2f:42:a7:74:92:32:d5:28:f8:89:
                    6e:86:e7:8f:90:c8:33:4c:01:a3:24:20:f5:75:be:
                    4f:8b:cc:54:04:2a:68:9d:c2:bd:6d:06:6b:e1:b2:
                    4e:51:73:b3:bd:47:e3:44:1c:de:4b:9c:22:26:00:
                    fe:37:3f:22:ef:9e:ed:dc:66:8d:cb:dc:b1:d0:52:
                    47:ad:c2:1d:54:3d:e4:5f:ee:81:6c:d4:c6:d1:35:
                    7d:a1:6f:46:54:64:c7:d4:e3:a1:80:78:7e:c6:4f:
                    45:7f:94:3e:b9:79:65:ee:cd:39:3d:ea:46:5e:11:
                    ac:99:42:6e:02:55:6d:37:75:2d:ce:04:a9:b4:14:
                    02:c8:da:29:f1:0c:77:7a:50:55:b3:48:f0:db:73:
                    cc:36:c6:50:37:f8:9b:d9:31:13:26:c0:74:dd:a4:
                    9c:b6:30:45:6f:4b:9f:42:3e:ca:0c:36:30:f0:fd:
                    0a:45:cf:f3:ed:df:c2:4e:aa:41:0d:d5:65:ac:42:
                    3c:e3:48:9d:1c:0c:1f:24:8b:17:df:68:4f:e4:02:
                    86:c3:87:b5:da:7b:91:d4:6a:63:95:92:cb:9e:63:
                    cf:b8:f7:3a:ca:e0:fc:d5:0a:1e:bb:25:2e:9d:e4:
                    f5:a2:7a:b0:28:00:3b:31:a0:98:d6:9d:3d:67:c0:
                    67:76:7e:f4:ea:2b:3e:cd:4e:c1:e8:e9:b0:38:ea:
                    67:a2:51:52:af:16:91:67:09:b8:0f:9d:13:bd:f1:
                    26:11:81
                Exponent: 65537 (0x10001)
        X509v3 extensions:
            X509v3 Basic Constraints: 
                CA:FALSE
    Signature Algorithm: sha256WithRSAEncryption
         83:43:30:97:84:71:ad:97:9e:ba:51:f8:15:85:99:c7:37:c9:
         41:37:f5:f6:3f:a0:af:5b:75:0f:9a:16:94:c9:f5:08:3a:ae:
         d1:5f:0f:81:22:b3:1c:80:90:de:29:44:7b:56:cc:47:66:8c:
         95:f4:74:73:dc:6a:39:2c:5a:0c:43:5f:3d:9c:0d:6b:28:5c:
         72:39:61:76:96:78:30:9f:22:7b:c9:ae:f5:f8:5b:d1:b6:ee:
         44:f2:89:19:44:72:a3:2d:25:49:49:96:8c:e2:98:54:0b:ec:
         3d:1a:01:e8:8e:93:bb:ed:a2:50:01:89:95:97:cd:1e:fd:54:
         80:4e:2e:67:88:00:87:93:cb:c0:8e:c0:d9:16:8c:1d:14:d3:
         9b:f1:77:f3:01:b7:f0:b0:51:4d:4d:99:89:c8:45:aa:81:9f:
         34:d7:05:41:3b:89:84:21:fe:37:46:05:f3:02:bb:26:f2:fe:
         41:d0:5b:a6:91:41:0f:a2:59:e1:98:40:07:38:39:6a:c2:ca:
         1a:90:47:8b:3e:cf:23:58:27:fa:70:af:d0:e6:ae:5f:c0:c7:
         36:95:a6:fe:ef:c2:8e:87:ef:98:8e:49:03:67:cc:89:e4:5a:
         dd:90:77:e8:c9:89:89:85:63:3f:0c:b1:ca:a8:82:51:88:3a:
         73:eb:f8:22:1a:c0:b4:55:db:a2:96:3a:cb:33:4d:98:ed:52:
         49:d0:0f:cf:74:b0:8a:43:5f:7b:12:d3:41:76:6d:cb:1d:bc:
         5e:94:35:82:27:91:af:5f:c7:63:ae:6d:28:45:a4:77:90:50:
         dc:29:96:73:39:aa:16:69:62:84:44:ca:06:38:7a:37:9b:d1:
         7a:b0:30:35:86:16:72:69:6b:d3:a7:1b:10:f8:aa:ca:56:fc:
         5d:6e:ac:56:b1:de:b7:1d:97:0b:91:b3:1a:2f:0e:39:a6:34:
         77:63:5d:13:b0:b0:d0:68:c0:d1:56:cf:bf:bf:63:b7:88:ed:
         24:4b:f0:58:a7:69:5e:e5:02:f6:cd:b5:08:70:a5:08:c8:08:
         66:28:80:1f:e1:30:20:8e:b1:17:bd:a1:0d:9c:02:20:09:48:
         7e:d3:11:bb:dd:83:25:fe:6f:1f:f0:48:1e:34:d5:e4:2b:ca:
         17:2a:3d:47:0d:bc:be:7e:ee:2a:84:d7:5f:fb:43:15:6d:b7:
         e4:74:be:85:02:37:47:17:18:0c:34:18:a5:23:00:97:05:ac:
         ad:48:7d:0a:7a:62:48:a8:c4:55:02:37:70:d5:c8:fe:02:54:
         eb:bc:76:9e:06:ba:1b:d2:42:74:86:5d:d9:1e:65:50:57:02:
         8e:d0:0a:19:4b:d1:54:44
-----BEGIN CERTIFICATE-----
MIIFQjCCAyqgAwIBAgIBAjANBgkqhkiG9w0BAQsFADBdMRUwEwYDVQQDDAxjb20u
cXMueWVpbGQxCzAJBgNVBAgMAlNDMQswCQYDVQQGEwJDTjEbMBkGCSqGSIb3DQEJ
ARYMeWVpbGRAcXMuY29tMQ0wCwYDVQQKDARzY3FzMB4XDTE5MDIyODAyNDkyN1oX
DTI5MDIyNTAyNDkyN1owXTEVMBMGA1UEAwwMY29tLnFzLnllaWxkMQswCQYDVQQI
DAJTQzELMAkGA1UEBhMCQ04xGzAZBgkqhkiG9w0BCQEWDHllaWxkQHFzLmNvbTEN
MAsGA1UECgwEc2NxczCCAiIwDQYJKoZIhvcNAQEBBQADggIPADCCAgoCggIBALvO
52dI5EuEHrpEGL1qD3Nj7hz2g8HsZooWKi/kXQjBlR4zW6dqJFAm8DNKOyxiQ/k0
MUHetm7hA1VuVyFgrI0+SYWi7Veen4+3vh8dYk/tJhWIfcx/tfutunmMIk4RN7Qz
G8i0mytGp7yUk+mty0zRX89Gmrki4zu3dlTpRRgH9ShuwH387/lIbWzqMkSh+ozG
6h2jTQyS+X8xhfmLCtFSpe2VZuZEjX5Q8p7bsRoeQXvNfNBW171XqG3Bh53jH2/x
9ta4XthT4wmAulwD7w9xxL3mROc49RpnLV2IxZWa3eiBPRwvQqd0kjLVKPiJbobn
j5DIM0wBoyQg9XW+T4vMVAQqaJ3CvW0Ga+GyTlFzs71H40Qc3kucIiYA/jc/Iu+e
7dxmjcvcsdBSR63CHVQ95F/ugWzUxtE1faFvRlRkx9TjoYB4fsZPRX+UPrl5Ze7N
OT3qRl4RrJlCbgJVbTd1Lc4EqbQUAsjaKfEMd3pQVbNI8NtzzDbGUDf4m9kxEybA
dN2knLYwRW9Ln0I+ygw2MPD9CkXP8+3fwk6qQQ3VZaxCPONInRwMHySLF99oT+QC
hsOHtdp7kdRqY5WSy55jz7j3Osrg/NUKHrslLp3k9aJ6sCgAOzGgmNadPWfAZ3Z+
9OorPs1OwejpsDjqZ6JRUq8WkWcJuA+dE73xJhGBAgMBAAGjDTALMAkGA1UdEwQC
MAAwDQYJKoZIhvcNAQELBQADggIBAINDMJeEca2XnrpR+BWFmcc3yUE39fY/oK9b
dQ+aFpTJ9Qg6rtFfD4EisxyAkN4pRHtWzEdmjJX0dHPcajksWgxDXz2cDWsoXHI5
YXaWeDCfInvJrvX4W9G27kTyiRlEcqMtJUlJlozimFQL7D0aAeiOk7vtolABiZWX
zR79VIBOLmeIAIeTy8COwNkWjB0U05vxd/MBt/CwUU1NmYnIRaqBnzTXBUE7iYQh
/jdGBfMCuyby/kHQW6aRQQ+iWeGYQAc4OWrCyhqQR4s+zyNYJ/pwr9Dmrl/AxzaV
pv7vwo6H75iOSQNnzInkWt2Qd+jJiYmFYz8MscqoglGIOnPr+CIawLRV26KWOssz
TZjtUknQD890sIpDX3sS00F2bcsdvF6UNYInka9fx2OubShFpHeQUNwplnM5qhZp
YoREygY4ejeb0XqwMDWGFnJpa9OnGxD4qspW/F1urFax3rcdlwuRsxovDjmmNHdj
XROwsNBowNFWz7+/Y7eI7SRL8FinaV7lAvbNtQhwpQjICGYogB/hMCCOsRe9oQ2c
AiAJSH7TEbvdgyX+bx/wSB401eQryhcqPUcNvL5+7iqE11/7QxVtt+R0voUCN0cX
GAw0GKUjAJcFrK1IfQp6YkioxFUCN3DVyP4CVOu8dp4GuhvSQnSGXdkeZVBXAo7Q
ChlL0VRE
-----END CERTIFICATE-----
